Certificate:
    Data:
        Version: 3 (0x2)
        Serial Number: 0 (0x0)
        Signature Algorithm: sha256WithRSAEncryption
        Issuer: C=US, ST=CA, L=Stanford, O=BMIR, OU=CA, CN=metadatacenter.orgx
        Validity
            Not Before: Feb  2 18:26:12 2022 GMT
            Not After : Feb  2 18:26:12 2023 GMT
        Subject: C=US, ST=CA, O=BMIR, CN=mysql.metadatacenter.orgx
        Subject Public Key Info:
            Public Key Algorithm: rsaEncryption
                RSA Public-Key: (2048 bit)
                Modulus:
                    00:a6:1c:bc:cf:71:d4:59:f3:4e:64:32:bc:05:e8:
                    28:10:cd:f3:41:bf:82:ff:51:ef:d0:2b:ec:ce:53:
                    7a:75:91:ba:b0:32:f1:28:e4:3b:62:ec:dd:1b:90:
                    22:b1:c6:dd:da:d5:b1:7a:a2:b4:74:c7:04:8d:a3:
                    e2:7d:da:de:f4:ce:11:1b:8c:92:09:3b:27:fc:0a:
                    64:50:46:2b:c5:ba:e6:97:fe:78:00:98:8e:1a:fa:
                    77:b2:5c:f1:82:73:f6:9d:88:a6:98:a7:94:4a:46:
                    f5:3e:fd:52:3b:cb:88:6d:ca:1b:4b:6a:6c:26:56:
                    40:9b:48:a6:e7:06:8a:e9:75:aa:38:15:2f:be:93:
                    f5:9d:1b:68:b6:7d:98:53:ea:34:1d:20:06:e2:6b:
                    f7:8b:9f:18:2b:d2:0f:4b:87:11:8e:a1:1c:e2:b3:
                    5f:94:2f:2b:84:30:c5:9e:7f:36:ec:6f:fa:40:4f:
                    00:59:69:71:13:1e:8a:b5:d7:18:dd:ed:ca:05:25:
                    c5:2f:ce:53:76:5c:40:70:88:26:82:8e:ee:7c:75:
                    03:2b:ef:2e:99:a7:9e:30:8e:f1:bf:06:77:2a:26:
                    4d:63:f7:5b:ad:ae:88:97:bd:90:2d:9a:1d:4a:0c:
                    83:be:87:3d:69:af:d9:a8:4a:2f:0c:d6:51:ae:a2:
                    0c:ad
                Exponent: 65537 (0x10001)
        X509v3 extensions:
            X509v3 Basic Constraints: 
                CA:FALSE
            X509v3 Key Usage: 
                Digital Signature, Non Repudiation, Key Encipherment
    Signature Algorithm: sha256WithRSAEncryption
         9b:f8:64:df:1a:ac:49:1d:b6:4d:b9:46:d3:34:03:00:93:72:
         93:8d:b6:c8:00:a8:ce:d5:4e:11:38:6f:4b:3d:6a:6d:07:67:
         9b:b5:03:c9:2a:fa:13:21:42:f0:88:21:36:9b:92:60:b8:ab:
         d6:be:be:4c:66:04:a2:70:9e:76:06:28:ca:c7:ae:d1:8f:76:
         72:3e:7e:fa:ff:6d:d5:dc:9f:bb:11:d5:6b:17:d5:f5:58:c7:
         00:da:1b:eb:87:47:a3:19:89:cf:ac:d8:be:79:05:44:01:16:
         db:5e:ee:7e:3f:d0:09:a2:39:8b:ed:4b:67:5e:7c:cb:ee:c2:
         d8:17:ad:69:39:f6:ec:fc:0b:9a:32:6d:12:a4:97:6e:21:04:
         57:bd:e4:c4:98:13:bf:67:e9:32:5a:4e:55:d7:70:d5:f4:88:
         9b:13:dd:1d:45:1a:3e:b5:f3:63:be:07:e7:7d:44:2e:f3:05:
         dc:af:8f:c1:36:ef:30:13:23:e0:24:ce:b5:3d:45:8b:d8:d8:
         22:94:3a:8a:3d:f0:6e:76:e9:cf:d7:67:53:6d:c0:6c:85:37:
         a2:a3:52:86:00:38:e7:1c:84:23:5e:07:73:59:20:86:96:52:
         5c:1b:e4:a5:09:6e:ec:3f:5f:6c:ca:d5:e8:a8:e6:75:34:66:
         8e:66:44:c6:ea:c3:4c:7f:b4:74:f2:6f:d2:44:56:c4:45:77:
         31:19:e9:55:ca:a0:9b:e3:86:d3:1e:a8:fd:7a:d4:cf:54:3f:
         bb:07:bb:7f:35:ee:6e:8a:d5:1a:1b:80:09:50:f4:f7:61:7f:
         30:92:75:b4:b4:f2:06:ba:4d:d3:8f:7a:e5:0a:07:aa:36:57:
         0c:fb:f6:2f:03:bf:9e:1c:32:65:c6:c9:b2:56:b8:77:8e:79:
         f1:93:6e:d5:99:f9:de:b1:d2:b0:ca:44:81:cf:62:a4:74:59:
         e8:2e:33:07:95:ba:2f:96:fa:e9:cb:31:cc:1a:bf:bf:90:d3:
         66:33:84:aa:43:7d:71:e5:30:16:2e:95:a3:7e:08:0c:fa:8b:
         f9:d1:70:fa:c5:23:71:eb:4f:6d:0f:8a:70:8f:e3:b9:72:fe:
         96:53:5a:9c:94:4f:25:52:20:88:c1:d4:9f:cf:65:86:e1:d8:
         bd:90:96:5d:17:cc:36:df:64:13:6b:42:1a:7d:65:bc:ca:51:
         9b:33:0d:9d:6c:c2:5c:ab:f2:d1:8e:7e:81:1d:7f:5a:2e:e2:
         56:1d:6c:5a:ff:29:de:35:51:56:32:84:ce:6f:72:d5:2e:9c:
         2b:80:a3:83:c8:21:06:14:0a:a7:c9:7c:1c:ef:2a:18:3c:82:
         d7:4c:23:9a:5c:6f:26:6b
-----BEGIN CERTIFICATE-----
MIIESTCCAjGgAwIBAgIBADANBgkqhkiG9w0BAQsFADBnMQswCQYDVQQGEwJVUzEL
MAkGA1UECAwCQ0ExETAPBgNVBAcMCFN0YW5mb3JkMQ0wCwYDVQQKDARCTUlSMQsw
CQYDVQQLDAJDQTEcMBoGA1UEAwwTbWV0YWRhdGFjZW50ZXIub3JneDAeFw0yMjAy
MDIxODI2MTJaFw0yMzAyMDIxODI2MTJaME0xCzAJBgNVBAYTAlVTMQswCQYDVQQI
DAJDQTENMAsGA1UECgwEQk1JUjEiMCAGA1UEAwwZbXlzcWwubWV0YWRhdGFjZW50
ZXIub3JneDCCASIwDQYJKoZIhvcNAQEBBQADggEPADCCAQoCggEBAKYcvM9x1Fnz
TmQyvAXoKBDN80G/gv9R79Ar7M5TenWRurAy8SjkO2Ls3RuQIrHG3drVsXqitHTH
BI2j4n3a3vTOERuMkgk7J/wKZFBGK8W65pf+eACYjhr6d7Jc8YJz9p2IppinlEpG
9T79UjvLiG3KG0tqbCZWQJtIpucGiul1qjgVL76T9Z0baLZ9mFPqNB0gBuJr94uf
GCvSD0uHEY6hHOKzX5QvK4QwxZ5/Nuxv+kBPAFlpcRMeirXXGN3tygUlxS/OU3Zc
QHCIJoKO7nx1AyvvLpmnnjCO8b8GdyomTWP3W62uiJe9kC2aHUoMg76HPWmv2ahK
LwzWUa6iDK0CAwEAAaMaMBgwCQYDVR0TBAIwADALBgNVHQ8EBAMCBeAwDQYJKoZI
hvcNAQELBQADggIBAJv4ZN8arEkdtk25RtM0AwCTcpONtsgAqM7VThE4b0s9am0H
Z5u1A8kq+hMhQvCIITabkmC4q9a+vkxmBKJwnnYGKMrHrtGPdnI+fvr/bdXcn7sR
1WsX1fVYxwDaG+uHR6MZic+s2L55BUQBFtte7n4/0AmiOYvtS2defMvuwtgXrWk5
9uz8C5oybRKkl24hBFe95MSYE79n6TJaTlXXcNX0iJsT3R1FGj6182O+B+d9RC7z
Bdyvj8E27zATI+AkzrU9RYvY2CKUOoo98G526c/XZ1NtwGyFN6KjUoYAOOcchCNe
B3NZIIaWUlwb5KUJbuw/X2zK1eio5nU0Zo5mRMbqw0x/tHTyb9JEVsRFdzEZ6VXK
oJvjhtMeqP161M9UP7sHu3817m6K1RobgAlQ9PdhfzCSdbS08ga6TdOPeuUKB6o2
Vwz79i8Dv54cMmXGybJWuHeOefGTbtWZ+d6x0rDKRIHPYqR0WeguMweVui+W+unL
Mcwav7+Q02YzhKpDfXHlMBYulaN+CAz6i/nRcPrFI3HrT20PinCP47ly/pZTWpyU
TyVSIIjB1J/PZYbh2L2Qll0XzDbfZBNrQhp9ZbzKUZszDZ1swlyr8tGOfoEdf1ou
4lYdbFr/Kd41UVYyhM5vctUunCuAo4PIIQYUCqfJfBzvKhg8gtdMI5pcbyZr
-----END CERTIFICATE-----
